target datalayout = "e-m:e-p270:32:32-p271:32:32-p272:64:64-i64:64-i128:128-f80:128-n8:16:32:64-S128"
target triple = "x86_64-pc-linux-gnu"

%class.State = type { [315 x i32], [315 x i16], i32, ptr, [2 x ptr] }

; Function Attrs: mustprogress nounwind uwtable
define hidden void @_ZN5State13_sub_Op_NegVDEPK4Node(ptr noundef nonnull align 8 dereferenceable(1920) %0, ptr noundef %1) #1 align 2 {
  %3 = alloca ptr, align 8
  %4 = alloca ptr, align 8
  %5 = alloca i32, align 4
  store ptr %0, ptr %3, align 8
  store ptr %1, ptr %4, align 8
  %6 = load ptr, ptr %3, align 8
  %7 = getelementptr inbounds %class.State, ptr %6, i32 0, i32 4
  %8 = getelementptr inbounds [2 x ptr], ptr %7, i64 0, i64 0
  %9 = load ptr, ptr %8, align 8
  %10 = icmp ne ptr %9, null
  br i1 %10, label %11, label %45

11:                                               ; preds = %2
  %12 = getelementptr inbounds %class.State, ptr %6, i32 0, i32 4
  %13 = getelementptr inbounds [2 x ptr], ptr %12, i64 0, i64 0
  %14 = load ptr, ptr %13, align 8
  %15 = getelementptr inbounds %class.State, ptr %14, i32 0, i32 1
  %16 = getelementptr inbounds [315 x i16], ptr %15, i64 0, i64 114
  %17 = load i16, ptr %16, align 4
  %18 = zext i16 %17 to i32
  %19 = and i32 %18, 1
  %20 = icmp ne i32 %19, 0
  br i1 %20, label %21, label %45

21:                                               ; preds = %11
  %22 = getelementptr inbounds %class.State, ptr %6, i32 0, i32 4
  %23 = getelementptr inbounds [2 x ptr], ptr %22, i64 0, i64 1
  %24 = load ptr, ptr %23, align 8
  %25 = icmp eq ptr %24, null
  br i1 %25, label %26, label %45

26:                                               ; preds = %21
  %27 = getelementptr inbounds %class.State, ptr %6, i32 0, i32 4
  %28 = getelementptr inbounds [2 x ptr], ptr %27, i64 0, i64 0
  %29 = load ptr, ptr %28, align 8
  %30 = getelementptr inbounds %class.State, ptr %29, i32 0, i32 0
  %31 = getelementptr inbounds [315 x i32], ptr %30, i64 0, i64 114
  %32 = load i32, ptr %31, align 8
  %33 = add i32 %32, 100
  store i32 %33, ptr %5, align 4
  %34 = load i32, ptr %5, align 4
  %35 = getelementptr inbounds %class.State, ptr %6, i32 0, i32 0
  %36 = getelementptr inbounds [315 x i32], ptr %35, i64 0, i64 114
  store i32 %34, ptr %36, align 8
  %37 = getelementptr inbounds %class.State, ptr %6, i32 0, i32 1
  %38 = getelementptr inbounds [315 x i16], ptr %37, i64 0, i64 114
  store i16 1053, ptr %38, align 4
  %39 = load i32, ptr %5, align 4
  %40 = add i32 %39, 100
  %41 = getelementptr inbounds %class.State, ptr %6, i32 0, i32 0
  %42 = getelementptr inbounds [315 x i32], ptr %41, i64 0, i64 115
  store i32 %40, ptr %42, align 4
  %43 = getelementptr inbounds %class.State, ptr %6, i32 0, i32 1
  %44 = getelementptr inbounds [315 x i16], ptr %43, i64 0, i64 115
  store i16 731, ptr %44, align 2
  br label %45

45:                                               ; preds = %26, %21, %11, %2
  ret void
}