; Function Attrs: mustprogress nofree norecurse nosync nounwind willreturn memory(read, argmem: readwrite, inaccessiblemem: none) uwtable
define hidden void @_ZN5State13_sub_Op_NegVDEPK4Node(ptr nocapture noundef nonnull align 8 dereferenceable(1920) %0, ptr nocapture readnone %1) local_unnamed_addr #1 align 2 {
  %3 = getelementptr inbounds i8, ptr %0, i64 1904
  %4 = load ptr, ptr %3, align 8
  %.not = icmp eq ptr %4, null
  br i1 %.not, label %21, label %5

5:                                                ; preds = %2
  %6 = getelementptr inbounds i8, ptr %4, i64 1488
  %7 = load i16, ptr %6, align 4
  %8 = and i16 %7, 1
  %.not2 = icmp ne i16 %8, 0
  %9 = getelementptr inbounds i8, ptr %0, i64 1912
  %10 = load ptr, ptr %9, align 8
  %11 = icmp eq ptr %10, null
  %or.cond = select i1 %.not2, i1 %11, i1 false
  br i1 %or.cond, label %12, label %21

12:                                               ; preds = %5
  %13 = getelementptr inbounds i8, ptr %4, i64 456
  %14 = load i32, ptr %13, align 8
  %15 = getelementptr inbounds i8, ptr %0, i64 456
  %16 = getelementptr inbounds i8, ptr %0, i64 1488
  store i16 1053, ptr %16, align 8
  %17 = insertelement <2 x i32> poison, i32 %14, i64 0
  %18 = shufflevector <2 x i32> %17, <2 x i32> poison, <2 x i32> zeroinitializer
  %19 = add <2 x i32> %18, <i32 100, i32 200>
  store <2 x i32> %19, ptr %15, align 8
  %20 = getelementptr inbounds i8, ptr %0, i64 1490
  store i16 731, ptr %20, align 2
  br label %21

21:                                               ; preds = %12, %5, %2
  ret void
}